(dp0
S'workercn.cn'
p1
S'zh'
p2
sS'yzdsb.hebnews.cn'
p3
g2
sS'yangtse.com'
p4
g2
sS'jinghua.cn'
p5
g2
sS'cankaoxiaoxi.com'
p6
g2
sS'hnrb.hinews.cn'
p7
g2
sS'epaper.xxsb.com'
p8
g2
sS'qlwb.com.cn'
p9
g2
sS'sznews.com'
p10
g2
sS'eeo.com.cn'
p11
g2
sS'cyol.com'
p12
g2
sS'huanqiu.com'
p13
g2
sS'yzwb.net'
p14
g2
sS'infzm.com'
p15
g2
sS'cn.wsj.com'
p16
g2
sS'whb.news365.com.cn'
p17
g2
sS'shanghaidaily.com'
p18
g2
sS'cri.cn'
p19
g2
sS'hkwb.net'
p20
g2
sS'hebeidaily.com.cn'
p21
g2
sS'people.cn'
p22
g2
sS'wap.lnd.com.cn'
p23
g2
sS'oeeee.com'
p24
g2
sS'cn.nytimes.com'
p25
g2
sS'jfdaily.com.cn'
p26
g2
sS'ngdsb.hinews.cn'
p27
g2
sS'cn.reuters.com'
p28
g2
sS'ben.com.cn'
p29
g2
sS'gmw.cn'
p30
g2
sS'xinmin.cn'
p31
g2
sS'wxrb.com'
p32
g2
sS'southcn.com'
p33
g2
sS'sichuandaily.com.cn'
p34
g2
sS'ycwb.com'
p35
g2
sS'ck.jun360.com'
p36
g2
sS'xinjiangyaou.com'
p37
g2
s.