ccollections
defaultdict
p0
(c__builtin__
list
p1
tp2
Rp3
S'dotearth.blogs.nytimes.com'
p4
(lp5
S'global'
p6
asS'healthland.time.com'
p7
(lp8
S'us'
p9
asS'www.scotsman.com'
p10
(lp11
S'uk'
p12
asS'news.bbc.co.uk'
p13
(lp14
g6
asS'absolutelynoboundaries.groups.msnbc.com'
p15
(lp16
g9
asS'marketplaceads.latimes.com'
p17
(lp18
g9
asS'www.bleacherreport.com'
p19
(lp20
g6
asS'sakaaltimes.com'
p21
(lp22
S'india'
p23
asS'telegraphindia.com'
p24
(lp25
g23
asS'todayspictures.slate.com'
p26
(lp27
g9
asS'directorstalkinterviews.com'
p28
(lp29
g12
asS'jinghua.cn'
p30
(lp31
S'china'
p32
asS'cankaoxiaoxi.com'
p33
(lp34
g32
asS'barrons.com'
p35
(lp36
g6
asS'kashmirtimes.com'
p37
(lp38
g23
asS'travelshow.telegraph.co.uk'
p39
(lp40
g12
asS'backissues.time.com'
p41
(lp42
g9
asS'www.edition.cnn.com'
p43
(lp44
g6
asS'assets.theatlantic.com'
p45
(lp46
g6
asS'content.time.com'
p47
(lp48
g9
asS'finnewsweek.com'
p49
(lp50
g6
asS'www.boston.com'
p51
(lp52
g9
asS'classicvine.groups.msnbc.com'
p53
(lp54
g9
asS'slapshot.blogs.nytimes.com'
p55
(lp56
g6
asS'chroniclelive.co.uk'
p57
(lp58
g12
asS'irishnews.com'
p59
(lp60
g12
asS'theatlantic.com'
p61
(lp62
g6
asS'huanqiu.com'
p63
(lp64
g32
asS'www.enn.com'
p65
(lp66
g6
asS'apps.ft.com'
p67
(lp68
g6
asS'proof.blogs.nytimes.com'
p69
(lp70
g6
asS'familynotices.walesonline.co.uk'
p71
(lp72
g12
asS'classifieds.chicagotribune.com'
p73
(lp74
g9
asS'style.time.com'
p75
(lp76
g9
asS'www.nasdaq.com'
p77
(lp78
g9
asS'insider.co.uk'
p79
(lp80
g12
asS'broncoswire.usatoday.com'
p81
(lp82
g9
asS'opportunities.rbi.org.in'
p83
(lp84
g23
asS'brownswire.usatoday.com'
p85
(lp86
g9
asS'cityam.com'
p87
(lp88
g12
asS'financialexpress.com'
p89
(lp90
g23
asS'feeds.benzinga.com'
p91
(lp92
g9
asS'www.scotlandnow.dailyrecord.co.uk'
p93
(lp94
g12
asS'onlinestore.usatoday.com'
p95
(lp96
g9
asS'ar.reuters.com'
p97
(lp98
g6
asS'live.reuters.com'
p99
(lp100
g6
asS'theridiculant.metro.co.uk'
p101
(lp102
g12
asS'enterprise.ft.com'
p103
(lp104
g6
asS'www.expressandstar.com'
p105
(lp106
g12
asS'budget.business-standard.com'
p107
(lp108
g23
asS'culture.fool.com'
p109
(lp110
g6
asS'rivieratravel.telegraph.co.uk'
p111
(lp112
g12
asS'ireach.prnewswire.com'
p113
(lp114
g6
asS'n.nasdaq.com'
p115
(lp116
g9
asS'mediadecoder.blogs.nytimes.com'
p117
(lp118
g6
asS'schott.blogs.nytimes.com'
p119
(lp120
g6
asS'brandstories.livemint.com'
p121
(lp122
g23
asS'www.theblaze.com'
p123
(lp124
g9
asS'www.businessinsider.in'
p125
(lp126
g23
asS'liberties.aljazeera.com'
p127
(lp128
g6
asS'marketplace.latimes.com'
p129
(lp130
g9
asS'www.themiddlemarket.com'
p131
(lp132
g6
asS'blogs.aljazeera.com'
p133
(lp134
g6
asS'local.latimes.com'
p135
(lp136
g9
asS'commerce.washingtonpost.com'
p137
(lp138
g6
asS'books.business-standard.com'
p139
(lp140
g23
asS'www.ptinews.com'
p141
(lp142
g23
asS'frenchgawker.gawker.com'
p143
(lp144
g9
asS'origin.www.treehugger.com'
p145
(lp146
g6
asS'liveblog.abcnews.go.com'
p147
(lp148
g9
asS'ycwb.com'
p149
(lp150
g32
asS'olympics.time.com'
p151
(lp152
g9
asS'recipes.timesofindia.com'
p153
(lp154
S'misc'
p155
asS'arenaofideas.groups.msnbc.com'
p156
(lp157
g9
asS'ifp.co.in'
p158
(lp159
g23
asS'video.cnbc.com'
p160
(lp161
g6
asS'uk.finance.yahoo.com'
p162
(lp163
g6
ag12
asS'freepressjournal.in'
p164
(lp165
g23
asS'independent.co.uk'
p166
(lp167
g12
asS'mojoers.groups.msnbc.com'
p168
(lp169
g9
asS'chicagotribune.com'
p170
(lp171
g9
asS'wintergames.ap.org'
p172
(lp173
g6
asS'www.dailymail.co.uk'
p174
(lp175
g12
asS'witness.theguardian.com'
p176
(lp177
g6
asS'science.time.com'
p178
(lp179
g9
asS'giantswire.usatoday.com'
p180
(lp181
g9
asS'i-d.vice.com'
p182
(lp183
g6
asS'hnrb.hinews.cn'
p184
(lp185
g32
asS'epaper.xxsb.com'
p186
(lp187
g32
asS'cyol.com'
p188
(lp189
g32
asS'herocomplex.latimes.com'
p190
(lp191
g9
asS'chargerswire.usatoday.com'
p192
(lp193
g9
asS'www.aniin.com'
p194
(lp195
g23
asS'store.latimes.com'
p196
(lp197
g9
asS'streetinsider.com'
p198
(lp199
g9
asS'elections.nbcnews.com'
p200
(lp201
g9
asS'counterterrorism.groups.msnbc.com'
p202
(lp203
g9
asS'business-standard.com'
p204
(lp205
g23
asS'www.walesonline.co.uk'
p206
(lp207
g12
asS'eveningtimes.co.uk'
p208
(lp209
g12
asS'findit.lep.co.uk'
p210
(lp211
g12
asS'iepf.gov.in'
p212
(lp213
g23
asS'npr.org'
p214
(lp215
g9
asS'www.deccanherald.com'
p216
(lp217
g23
asS'www.thesun.co.uk'
p218
(lp219
g12
asS'news.blogs.nytimes.com'
p220
(lp221
g6
asS'6thfloor.blogs.nytimes.com'
p222
(lp223
g6
asS'ads.telegraph.co.uk'
p224
(lp225
g12
asS'ravenswire.usatoday.com'
p226
(lp227
g9
asS'www.proactiveinvestors.com.au'
p228
(lp229
g6
asS'helpingheroeswork.foxnews.com'
p230
(lp231
g9
asS'realclimate.org'
p232
(lp233
g6
asS'www.indiainfoline.com'
p234
(lp235
g23
asS'topics.wsj.com'
p236
(lp237
g6
asS'www.vox.com'
p238
(lp239
g6
asS'americasmarkets.usatoday.com'
p240
(lp241
g9
asS'onenation.usatoday.com'
p242
(lp243
g9
asS'featuresblogs.chicagotribune.com'
p244
(lp245
g9
asS'staging.theblaze.com'
p246
(lp247
g9
asS'www.cnbc.com'
p248
(lp249
g6
asS'travel2.nytimes.com'
p250
(lp251
g6
asS'www.sentaracareers.com'
p252
(lp253
g155
asS'spiderbites.nytimes.com'
p254
(lp255
g6
asS'codedocs.webservices.ft.com'
p256
(lp257
g6
asS'newindianexpress.com'
p258
(lp259
g23
asS'expressgroup.indianexpress.com'
p260
(lp261
g23
asS'abc.go.com'
p262
(lp263
g155
asS'newsweek.washingtonpost.com'
p264
(lp265
g6
asS'jp.mobile.reuters.com'
p266
(lp267
g6
asS'beijingtoday.com.cn'
p268
(lp269
g32
asS'awards.vccircle.com'
p270
(lp271
g23
asS'query.nytimes.com'
p272
(lp273
g6
asS'www.moodys.com'
p274
(lp275
g6
asS'ftalphaville.ft.com'
p276
(lp277
g6
asS'jobs.expressandstar.com'
p278
(lp279
g12
asS'feeds.slate.com'
p280
(lp281
g9
asS'doonesbury.washingtonpost.com'
p282
(lp283
g6
asS'graphics.wsj.com'
p284
(lp285
g6
asS'titanswire.usatoday.com'
p286
(lp287
g9
asS'directory.dailyrecord.co.uk'
p288
(lp289
g12
asS'nbcpolitics.nbcnews.com'
p290
(lp291
g9
asS'workercn.cn'
p292
(lp293
g32
asS'aol.co.uk'
p294
(lp295
g12
asS'newsfeed.time.com'
p296
(lp297
g9
asS'msnbc.com'
p298
(lp299
g9
asS'boards.fool.com'
p300
(lp301
g6
asS'liverpoolecho.co.uk'
p302
(lp303
g12
asS'community.chicagotribune.com'
p304
(lp305
g9
asS'ideas.blogs.nytimes.com'
p306
(lp307
g6
asS'subscribe.washingtonpost.com'
p308
(lp309
g6
asS'it.reuters.com'
p310
(lp311
g6
asS'jfdaily.com.cn'
p312
(lp313
g32
asS'forbes.com'
p314
(lp315
g6
asS'eeo.com.cn'
p316
(lp317
g32
asS'tickets.mirror.co.uk'
p318
(lp319
g12
asS'learning.blogs.nytimes.com'
p320
(lp321
g6
asS'pr.aljazeera.com'
p322
(lp323
g6
asS'www.assamtribune.com'
p324
(lp325
g23
asS'ux-origin.usatoday.com'
p326
(lp327
g9
asS'traveltips.usatoday.com'
p328
(lp329
g9
asS'blow.blogs.nytimes.com'
p330
(lp331
g6
asS'jobs.telegraph.co.uk'
p332
(lp333
g12
asS'feedproxy.google.com'
p334
(lp335
g6
asS'sinosphere.blogs.nytimes.com'
p336
(lp337
g6
asS'archive.boston.com'
p338
(lp339
g9
asS'select.nytimes.com'
p340
(lp341
g6
asS'www.nbcnews.com'
p342
(lp343
g9
asS'ftw.usatoday.com'
p344
(lp345
g9
asS'dailymail.co.uk'
p346
(lp347
g12
asS'suchetadalal.com'
p348
(lp349
g23
asS'marathon.blogs.nytimes.com'
p350
(lp351
g6
asS'cooking.nytimes.com'
p352
(lp353
g6
asS'businesswire.com'
p354
(lp355
g6
asS'sausage.gawker.com'
p356
(lp357
g9
asS'www.biznews.com'
p358
(lp359
g12
asS'americanprog.groups.msnbc.com'
p360
(lp361
g9
asS'origin-www.hindustantimes.com'
p362
(lp363
g23
asS'hebeidaily.com.cn'
p364
(lp365
g32
asS'www.michaelpage.co.uk'
p366
(lp367
g155
asS'touchdownwire.usatoday.com'
p368
(lp369
g9
asS'fool.com'
p370
(lp371
g6
asS'www.npr.org'
p372
(lp373
g9
asS'packerswire.usatoday.com'
p374
(lp375
g9
asS'ir.moodys.com'
p376
(lp377
g6
asS'live.latimes.com'
p378
(lp379
g9
asS'aniin.com'
p380
(lp381
g23
asS'www.mnn.com'
p382
(lp383
g6
asS'deccanherald.com'
p384
(lp385
g23
asS'static.latimes.com'
p386
(lp387
g9
asS'antiviral.gawker.com'
p388
(lp389
g9
asS'opinionator.blogs.nytimes.com'
p390
(lp391
g6
asS'fashion.telegraph.co.uk'
p392
(lp393
g12
asS'bruni.blogs.nytimes.com'
p394
(lp395
g6
asS'www.trbas.com'
p396
(lp397
g155
asS'ngdsb.hinews.cn'
p398
(lp399
g32
asS'subscribe.bostonglobe.com'
p400
(lp401
g9
asS'cgi1.usatoday.com'
p402
(lp403
g9
asS'news.vice.com'
p404
(lp405
g6
asS'iht-retrospective.blogs.nytimes.com'
p406
(lp407
g6
asS'video.vice.com'
p408
(lp409
g6
asS'www.multivu.com'
p410
(lp411
g155
asS'redskinswire.usatoday.com'
p412
(lp413
g9
asS'www.snagajob.com'
p414
(lp415
g155
asS'economictimes.indiatimes.com'
p416
(lp417
g23
asS'liverpoolblog.metro.co.uk'
p418
(lp419
g12
asS'classifieds.belfasttelegraph.co.uk'
p420
(lp421
g12
asS'epaper.newindianexpress.com'
p422
(lp423
g23
asS'seat61.com'
p424
(lp425
g23
asS'bookshop.theguardian.com'
p426
(lp427
g6
asS'fr.reuters.com'
p428
(lp429
g6
asS'origin-alpha.livemint.com'
p430
(lp431
g23
asS'www.ideastream.org'
p432
(lp433
g155
asS'www.yorkshireeveningpost.co.uk'
p434
(lp435
g12
asS'fortune.com'
p436
(lp437
g6
asS'www.usajobs.gov'
p438
(lp439
g155
asS'ww2.cfo.com'
p440
(lp441
g155
asS'local.edinburghnews.scotsman.com'
p442
(lp443
g12
asS'swampland.time.com'
p444
(lp445
g9
asS'theramswire.usatoday.com'
p446
(lp447
g9
asS'www.eveningtimes.co.uk'
p448
(lp449
g12
asS'wsj.com'
p450
(lp451
g6
asS'news.sky.com'
p452
(lp453
g12
asS'financial.washingtonpost.com'
p454
(lp455
g6
asS'crime.chicagotribune.com'
p456
(lp457
g9
asS'europe.wsj.com'
p458
(lp459
g12
asS'twitter.com'
p460
(lp461
g155
asS'accounts.marketwatch.com'
p462
(lp463
g6
asS'slate.com'
p464
(lp465
g9
asS'sznews.com'
p466
(lp467
g32
asS'blogs.business-standard.com'
p468
(lp469
g23
asS'health.usnews.com'
p470
(lp471
g9
asS'therail.blogs.nytimes.com'
p472
(lp473
g6
asS'jansingscompany.groups.msnbc.com'
p474
(lp475
g9
asS'leasing.telegraph.co.uk'
p476
(lp477
g12
asS'www.dmgmedia.co.uk'
p478
(lp479
g155
asS'theblaze.com'
p480
(lp481
g9
asS'amuse-i-d.vice.com'
p482
(lp483
g6
asS'pages.email3.telegraph.co.uk'
p484
(lp485
g12
asS'formulaoneblog.metro.co.uk'
p486
(lp487
g12
asS'vccircle.com'
p488
(lp489
g23
asS'weather.blogs.foxnews.com'
p490
(lp491
g9
asS'reiders.groups.msnbc.com'
p492
(lp493
g9
asS'thecuck.gawker.com'
p494
(lp495
g9
asS'subscription.wsj.com'
p496
(lp497
g6
asS'uk.reuters.com'
p498
(lp499
g6
ag12
asS'www.finmin.nic.in'
p500
(lp501
g23
asS'gambit.blogs.nytimes.com'
p502
(lp503
g6
asS'hive.slate.com'
p504
(lp505
g9
asS'businessweekly.co.uk'
p506
(lp507
g12
asS'quotes.wsj.com'
p508
(lp509
g6
asS'www.chicagotribune.com'
p510
(lp511
g9
asS'abcnews.go.com'
p512
(lp513
g9
asS'rankings.ft.com'
p514
(lp515
g6
asS'topics.barrons.com'
p516
(lp517
g6
asS'jp.wsj.com'
p518
(lp519
g6
asS'puzzles.independent.co.uk'
p520
(lp521
g12
asS'www.seat61.com'
p522
(lp523
g23
asS'londonstockexchange.com'
p524
(lp525
g12
asS'rbidocs.rbi.org.in'
p526
(lp527
g23
asS'privacy.aol.com'
p528
(lp529
g6
asS'wordplay.blogs.nytimes.com'
p530
(lp531
g6
asS'ben.com.cn'
p532
(lp533
g32
asS'entertainment.nbcnews.com'
p534
(lp535
g9
asS'roomfordebate.blogs.nytimes.com'
p536
(lp537
g6
asS'local.npr.org'
p538
(lp539
g9
asS'dealstreetasia.com'
p540
(lp541
g23
asS'seahawkswire.usatoday.com'
p542
(lp543
g9
asS'app.liverpoolecho.co.uk'
p544
(lp545
g12
asS'www.tumblr.com'
p546
(lp547
g155
asS'articles.latimes.com'
p548
(lp549
g9
asS'www.aol.co.uk'
p550
(lp551
g12
asS'realty.economictimes.indiatimes.com'
p552
(lp553
g23
asS'ciso.economictimes.indiatimes.com'
p554
(lp555
g23
asS'thehitavada.com'
p556
(lp557
g23
asS'thequad.blogs.nytimes.com'
p558
(lp559
g6
asS'worldchanging.com'
p560
(lp561
g6
asS'dolphinswire.usatoday.com'
p562
(lp563
g9
asS'recruiters.expressandstar.com'
p564
(lp565
g12
asS'www.treehugger.com'
p566
(lp567
g6
asS'www.benzinga.com'
p568
(lp569
g9
asS'chinadaily.com.cn'
p570
(lp571
g32
asS'washington.blogs.nytimes.com'
p572
(lp573
g6
asS'credittrends.moodys.com'
p574
(lp575
g6
asS'obituaries.latimes.com'
p576
(lp577
g9
asS'www.speakingtree.in'
p578
(lp579
g155
asS'newstodaynet.com'
p580
(lp581
g23
asS'es.reuters.com'
p582
(lp583
g6
asS'www.salon.com'
p584
(lp585
g9
asS'content.usatoday.com'
p586
(lp587
g9
asS'wine.telegraph.co.uk'
p588
(lp589
g12
asS'gadgetwise.blogs.nytimes.com'
p590
(lp591
g6
asS'local.heraldscotland.com'
p592
(lp593
g12
asS'valleywag.gawker.com'
p594
(lp595
g9
asS'books.telegraph.co.uk'
p596
(lp597
g12
asS'thesun.co.uk'
p598
(lp599
g12
asS'get.aol.com'
p600
(lp601
g6
asS'recyclenow.com'
p602
(lp603
g6
asS'ad.washingtonpost.com'
p604
(lp605
g6
asS'careers.bloomberg.com'
p606
(lp607
g6
asS'covers.usatoday.com'
p608
(lp609
g9
asS'empirezone.blogs.nytimes.com'
p610
(lp611
g6
asS'app.ft.com'
p612
(lp613
g6
asS'ww.npr.org'
p614
(lp615
g9
asS'fitchratings.com'
p616
(lp617
g6
asS'sharecast.com'
p618
(lp619
g6
asS'bucks.blogs.nytimes.com'
p620
(lp621
g6
asS'www.morningstaronline.co.uk'
p622
(lp623
g12
asS'money.uk.msn.com'
p624
(lp625
g12
asS'phillipsblog.dailymail.co.uk'
p626
(lp627
g12
asS'thestreet.com'
p628
(lp629
g6
asS'sentinelassam.com'
p630
(lp631
g23
asS'icmai.in'
p632
(lp633
g23
asS'www.thestreet.com'
p634
(lp635
g6
asS'freakonomics.com'
p636
(lp637
g155
asS'tottenhamjournal.co.uk'
p638
(lp639
g12
asS'dinersjournal.blogs.nytimes.com'
p640
(lp641
g6
asS'business.time.com'
p642
(lp643
g9
asS'bittman.blogs.nytimes.com'
p644
(lp645
g6
asS'money.usnews.com'
p646
(lp647
g9
asS'databoard.dealcurry.com'
p648
(lp649
g23
asS'vancouver2010.blogs.nytimes.com'
p650
(lp651
g6
asS'alpha.hindustantimes.com'
p652
(lp653
g23
asS'dnaindia.com'
p654
(lp655
g23
asS'organiser.org'
p656
(lp657
g23
asS'dailypost.co.uk'
p658
(lp659
g12
asS'ap.org'
p660
(lp661
g6
asS'earth-policy.org'
p662
(lp663
g6
asS'recipes.latimes.com'
p664
(lp665
g9
asS'lionswire.usatoday.com'
p666
(lp667
g9
asS'www.businessinsider.com'
p668
(lp669
g6
asS'dealcurry.com'
p670
(lp671
g23
asS'findit.scotsman.com'
p672
(lp673
g12
asS'homicide.latimes.com'
p674
(lp675
g9
asS'search.aol.com'
p676
(lp677
g6
asS'left-wingfallacies.groups.msnbc.com'
p678
(lp679
g9
asS'www.aol.com'
p680
(lp681
g6
asS'steelerswire.usatoday.com'
p682
(lp683
g9
asS'op-talk.blogs.nytimes.com'
p684
(lp685
g6
asS'discover.ft.com'
p686
(lp687
g6
asS'cowboyswire.usatoday.com'
p688
(lp689
g9
asS'www.allthetopbananas.com'
p690
(lp691
g155
asS'www.marketwatch.com'
p692
(lp693
g6
asS'laughlines.blogs.nytimes.com'
p694
(lp695
g6
asS'www.htgifa.hindustantimes.com'
p696
(lp697
g23
asS'tktk.gawker.com'
p698
(lp699
g9
asS'marketgraphs4.economictimes.indiatimes.com'
p700
(lp701
g23
asS'seekingalpha.com'
p702
(lp703
g9
asS'm.rbi.org.in'
p704
(lp705
g23
asS'local.standard.co.uk'
p706
(lp707
g12
asS'uk.mobile.reuters.com'
p708
(lp709
g6
asS'iplayerhelp.external.bbc.co.uk'
p710
(lp711
g6
asS'nascarfanindex.usatoday.com'
p712
(lp713
g9
asS'domesticity.gawker.com'
p714
(lp715
g9
asS'realmoney.thestreet.com'
p716
(lp717
g6
asS'usnews.newsvine.com'
p718
(lp719
g155
asS'radio.foxnews.com'
p720
(lp721
g9
asS'nbcnews.com'
p722
(lp723
g9
asS'www.time.com'
p724
(lp725
g9
asS'markets.businessinsider.com'
p726
(lp727
g6
asS'voices.washingtonpost.com'
p728
(lp729
g6
asS'summergames.ap.org'
p730
(lp731
g6
asS'www.business-standard.com'
p732
(lp733
g23
asS'tickets.usatoday.com'
p734
(lp735
g9
asS'americansforlibertyandjustice.groups.msnbc.com'
p736
(lp737
g9
asS'projects.hindustantimes.com'
p738
(lp739
g23
asS'accounts.barrons.com'
p740
(lp741
g6
asS'twofortheroad.blogs.nytimes.com'
p742
(lp743
g6
asS'college.usatoday.com'
p744
(lp745
g9
asS'guides.wsj.com'
p746
(lp747
g6
asS'mydigitalfc.com'
p748
(lp749
g23
asS'citywire.co.uk'
p750
(lp751
g12
asS'wallpapers.mid-day.com'
p752
(lp753
g23
asS'cricketblog.metro.co.uk'
p754
(lp755
g12
asS'highline.huffingtonpost.com'
p756
(lp757
g6
asS'soulmates.theguardian.com'
p758
(lp759
g6
asS'archives.chicagotribune.com'
p760
(lp761
g9
asS'de.reuters.com'
p762
(lp763
g6
asS'my.fool.com'
p764
(lp765
g6
asS'globalstore.thetimes.co.uk'
p766
(lp767
g12
asS'realtime.wsj.com'
p768
(lp769
g6
asS'games.aol.co.uk'
p770
(lp771
g12
asS'framework.latimes.com'
p772
(lp773
g9
asS'heraldgoa.in'
p774
(lp775
g23
asS'lta.reuters.com'
p776
(lp777
g6
asS'finevining.gawker.com'
p778
(lp779
g9
asS'sachet.rbi.org.in'
p780
(lp781
g23
asS'kristof.blogs.nytimes.com'
p782
(lp783
g6
asS'careers.foxnews.com'
p784
(lp785
g9
asS'theboard.blogs.nytimes.com'
p786
(lp787
g6
asS'www.environmentalhealthnews.org'
p788
(lp789
g6
asS'www.theverge.com'
p790
(lp791
g6
asS'thelede.blogs.nytimes.com'
p792
(lp793
g6
asS'firstread.nbcnews.com'
p794
(lp795
g9
asS'drylandsca.latimes.com'
p796
(lp797
g9
asS'www.chroniclelive.co.uk'
p798
(lp799
g12
asS'galleries.apps.chicagotribune.com'
p800
(lp801
g9
asS'thecerbatgem.com'
p802
(lp803
g6
asS'cleantechnica.com'
p804
(lp805
g6
asS'www.cnn.com'
p806
(lp807
g6
asS'bits.blogs.nytimes.com'
p808
(lp809
g6
asS'video.nydailynews.com'
p810
(lp811
g9
asS'scotlandblog.metro.co.uk'
p812
(lp813
g12
asS'onthescene.msnbc.com'
p814
(lp815
g9
asS'highschool.latimes.com'
p816
(lp817
g9
asS'moodys.com'
p818
(lp819
g6
asS'jobs.theguardian.com'
p820
(lp821
g6
asS'wap.lnd.com.cn'
p822
(lp823
g32
asS'time.com'
p824
(lp825
g9
asS'thevane.gawker.com'
p826
(lp827
g9
asS'www.proactiveinvestors.co.uk'
p828
(lp829
g12
asS'theshillongtimes.com'
p830
(lp831
g23
asS'js.washingtonpost.com'
p832
(lp833
g6
asS'ara.reuters.com'
p834
(lp835
g6
asS'epaper.tribuneindia.com'
p836
(lp837
g23
asS'poy.time.com'
p838
(lp839
g9
asS'comedianblog.metro.co.uk'
p840
(lp841
g12
asS'szdaily.com'
p842
(lp843
g32
asS'general2010.elections.chicagotribune.com'
p844
(lp845
g9
asS'sso.accounts.dowjones.com'
p846
(lp847
g155
asS'www.chaffeybreeze.com'
p848
(lp849
g155
asS'ians.in'
p850
(lp851
g23
asS'documents.latimes.com'
p852
(lp853
g9
asS'economics.wsj.com'
p854
(lp855
g6
asS'm.greaterkashmir.com'
p856
(lp857
g23
asS'www.westminstersc.com'
p858
(lp859
g9
asS'registration.ft.com'
p860
(lp861
g6
asS'developer.ft.com'
p862
(lp863
g6
asS'blogs.wsj.com'
p864
(lp865
g6
asS'www.proactiveinvestors.de'
p866
(lp867
g155
asS'local.eveningtimes.co.uk'
p868
(lp869
g12
asS'primaries2010.elections.chicagotribune.com'
p870
(lp871
g9
asS'vice.com'
p872
(lp873
g6
asS'www.nagalandpost.com'
p874
(lp875
g23
asS'nypost.com'
p876
(lp877
g9
asS'accounts.wsj.com'
p878
(lp879
g6
asS'yangtse.com'
p880
(lp881
g32
asS'ru.reuters.com'
p882
(lp883
g6
asS'www.thescottishsun.co.uk'
p884
(lp885
g12
asS'favourite.thesun.co.uk'
p886
(lp887
g12
asS'sichuandaily.com.cn'
p888
(lp889
g32
asS'promotions.prnewswire.com'
p890
(lp891
g6
asS'markets.on.nytimes.com'
p892
(lp893
g6
asS'traveleditions.telegraph.co.uk'
p894
(lp895
g12
asS'live.aljazeera.com'
p896
(lp897
g6
asS'money.livemint.com'
p898
(lp899
g23
asS'proactiveinvestors.co.uk'
p900
(lp901
g12
asS'events.nytimes.com'
p902
(lp903
g6
asS'nordic.businessinsider.com'
p904
(lp905
g6
asS'digitalservices.npr.org'
p906
(lp907
g9
asS'cruiseshow.telegraph.co.uk'
p908
(lp909
g12
asS'peopleandplanet.net'
p910
(lp911
g6
asS'green.blogs.nytimes.com'
p912
(lp913
g6
asS'nystocknews.com'
p914
(lp915
g6
asS'events.latimes.com'
p916
(lp917
g9
asS'www.ians.in'
p918
(lp919
g23
asS'speed.economictimes.indiatimes.com'
p920
(lp921
g23
asS'shop.morningstaronline.co.uk'
p922
(lp923
g12
asS'infzm.com'
p924
(lp925
g32
asS'indianexpress.com'
p926
(lp927
g23
asS'in.reuters.com'
p928
(lp929
g6
ag23
asS'workforus.theguardian.com'
p930
(lp931
g6
asS'starofmysore.com'
p932
(lp933
g23
asS'realestate.nytimes.com'
p934
(lp935
g6
asS'www.shop.express.co.uk'
p936
(lp937
g12
asS'sub.ft.com'
p938
(lp939
g6
asS'pantherswire.usatoday.com'
p940
(lp941
g9
asS'factbasednation.groups.msnbc.com'
p942
(lp943
g9
asS'www.jehlumpost.com'
p944
(lp945
g23
asS'games.express.co.uk'
p946
(lp947
g12
asS'patriotswire.usatoday.com'
p948
(lp949
g9
asS'texanswire.usatoday.com'
p950
(lp951
g9
asS'labs.ft.com'
p952
(lp953
g6
asS'finmin.nic.in'
p954
(lp955
g23
asS'auth.telegraph.co.uk'
p956
(lp957
g12
asS'projects.wsj.com'
p958
(lp959
g6
asS'community.nytimes.com'
p960
(lp961
g6
asS'my.slate.com'
p962
(lp963
g9
asS'cosmiclog.nbcnews.com'
p964
(lp965
g9
asS'balkans.aljazeera.com'
p966
(lp967
g6
asS'www.dailypioneer.com'
p968
(lp969
g23
asS'themiddlemarket.com'
p970
(lp971
g6
asS'cn.nytimes.com'
p972
(lp973
g6
ag32
asS'mediablog.prnewswire.com'
p974
(lp975
g6
asS'advertising.nytimes.com'
p976
(lp977
g6
asS'rendezvous.blogs.nytimes.com'
p978
(lp979
g6
asS'games.usatoday.com'
p980
(lp981
g9
asS'tvguideuk.telegraph.co.uk'
p982
(lp983
g12
asS'finance.yahoo.com'
p984
(lp985
g6
asS'washpost.bloomberg.com'
p986
(lp987
g6
asS'www.businessweekly.co.uk'
p988
(lp989
g12
asS'dasofolde.groups.msnbc.com'
p990
(lp991
g9
asS'www.prnewswire.com'
p992
(lp993
g6
asS'productcentral.aol.com'
p994
(lp995
g6
asS'timelines.latimes.com'
p996
(lp997
g9
asS'assamtribune.com'
p998
(lp999
g23
asS'southcn.com'
p1000
(lp1001
g32
asS'www.vccircle.com'
p1002
(lp1003
g23
asS'www.mid-day.com'
p1004
(lp1005
g23
asS'directory.liverpoolecho.co.uk'
p1006
(lp1007
g12
asS'articles.boston.com'
p1008
(lp1009
g9
asS'gardenshop.telegraph.co.uk'
p1010
(lp1011
g12
asS'genome.ch.bbc.co.uk'
p1012
(lp1013
g6
asS'sadbhavanatimes.com'
p1014
(lp1015
g23
asS'news.statetimes.in'
p1016
(lp1017
g23
asS'careers.moodys.com'
p1018
(lp1019
g6
asS'plus.post.walesonline.co.uk'
p1020
(lp1021
g12
asS'newsletters.barrons.com'
p1022
(lp1023
g6
asS'feeds.feedburner.com'
p1024
(lp1025
g155
asS'sportspolls.usatoday.com'
p1026
(lp1027
g9
asS'marketwatch.com'
p1028
(lp1029
g6
asS'custom.forbes.com'
p1030
(lp1031
g6
asS'local.yorkshireeveningpost.co.uk'
p1032
(lp1033
g12
asS'subscription.time.com'
p1034
(lp1035
g9
asS'ca.reuters.com'
p1036
(lp1037
g6
asS'tickets.telegraph.co.uk'
p1038
(lp1039
g12
asS'video.foxnews.com'
p1040
(lp1041
g9
asS'pub-origin.cnbc.com'
p1042
(lp1043
g6
asS'funds.uk.reuters.com'
p1044
(lp1045
g6
ag12
asS'q.nasdaq.com'
p1046
(lp1047
g9
asS'cnbc.com'
p1048
(lp1049
g6
asS'pagesix.com'
p1050
(lp1051
g155
asS'advertising.aol.com'
p1052
(lp1053
g6
asS'chiefswire.usatoday.com'
p1054
(lp1055
g9
asS'www2.blogs.economictimes.indiatimes.com'
p1056
(lp1057
g23
asS'traveloffers.standard.co.uk'
p1058
(lp1059
g12
asS'truestories.gawker.com'
p1060
(lp1061
g9
asS'careershub.bbc.co.uk'
p1062
(lp1063
g6
asS'ahmedabadmirror.indiatimes.com'
p1064
(lp1065
g23
asS'metro.co.uk'
p1066
(lp1067
g12
asS'leagueofhisown.metro.co.uk'
p1068
(lp1069
g12
asS'shop.telegraph.co.uk'
p1070
(lp1071
g12
asS'blogs.chicagotribune.com'
p1072
(lp1073
g9
asS'directory.walesonline.co.uk'
p1074
(lp1075
g12
asS'jobnetwork.chicagotribune.com'
p1076
(lp1077
g9
asS'themedium.blogs.nytimes.com'
p1078
(lp1079
g6
asS'www.usatoday.com'
p1080
(lp1081
g9
asS'jehlumpost.com'
p1082
(lp1083
g23
asS'employers.washingtonpost.com'
p1084
(lp1085
g6
asS'www.baseball-news-blog.com'
p1086
(lp1087
g155
asS'shanghaidaily.com'
p1088
(lp1089
g32
asS'cri.cn'
p1090
(lp1091
g32
asS'www.latimes.com'
p1092
(lp1093
g9
asS'aallamericans.groups.msnbc.com'
p1094
(lp1095
g9
asS'tickets.cityam.com'
p1096
(lp1097
g12
asS'it.businessinsider.com'
p1098
(lp1099
g6
asS'uniindia.com'
p1100
(lp1101
g23
asS'www.suchetadalal.com'
p1102
(lp1103
g23
asS'businessinsider.in'
p1104
(lp1105
g23
asS'review.gawker.com'
p1106
(lp1107
g9
asS'apps.chicagotribune.com'
p1108
(lp1109
g9
asS'registry.origami.ft.com'
p1110
(lp1111
g6
asS'www.dailyexcelsior.com'
p1112
(lp1113
g23
asS'bestlawfirms.usnews.com'
p1114
(lp1115
g9
asS'beta.freepressjournal.in'
p1116
(lp1117
g23
asS'prescriptions.blogs.nytimes.com'
p1118
(lp1119
g6
asS'bbc.com'
p1120
(lp1121
g6
asS'www.sebi.gov.in'
p1122
(lp1123
g23
asS'www.reuters.com'
p1124
(lp1125
g6
asS'beautypageants.indiatimes.com'
p1126
(lp1127
g155
asS'evaneos.independent.co.uk'
p1128
(lp1129
g12
asS'huffingtonpost.co.uk'
p1130
(lp1131
g12
asS'sportswire.usatoday.com'
p1132
(lp1133
g9
asS'www.cityam.com'
p1134
(lp1135
g12
asS'fightland.vice.com'
p1136
(lp1137
g6
asS'archive.newstodaynet.com'
p1138
(lp1139
g23
asS'vitals.nbcnews.com'
p1140
(lp1141
g9
asS'sec.gov'
p1142
(lp1143
g9
asS'old.rbi.org.in'
p1144
(lp1145
g23
asS'www2.blogs.timesofindia.indiatimes.com'
p1146
(lp1147
g23
asS'bats.blogs.nytimes.com'
p1148
(lp1149
g6
asS'holidays.theguardian.com'
p1150
(lp1151
g6
asS'photosforsale.expressandstar.com'
p1152
(lp1153
g12
asS'widerimage.reuters.com'
p1154
(lp1155
g6
asS'theshuttle.org.uk'
p1156
(lp1157
g12
asS'www.paathshala.hindustantimes.com'
p1158
(lp1159
g23
asS'www.newindianexpress.com'
p1160
(lp1161
g23
asS'www.leaderlive.co.uk'
p1162
(lp1163
g12
asS'emagazine.com'
p1164
(lp1165
g6
asS'howtospendit.ft.com'
p1166
(lp1167
g6
asS'www.collegefootball.ap.org'
p1168
(lp1169
g6
asS'economist.com'
p1170
(lp1171
g6
asS'mid-day.com'
p1172
(lp1173
g23
asS'bucswire.usatoday.com'
p1174
(lp1175
g9
asS'engineroom.ft.com'
p1176
(lp1177
g6
asS'jobnetwork.latimes.com'
p1178
(lp1179
g9
asS'fieryone.groups.msnbc.com'
p1180
(lp1181
g9
asS'www.uniindia.com'
p1182
(lp1183
g23
asS'premium.thehindubusinessline.com'
p1184
(lp1185
g23
asS'benzinga.com'
p1186
(lp1187
g9
asS'standard.co.uk'
p1188
(lp1189
g12
asS'apply.lcps.org'
p1190
(lp1191
g155
asS'community.nasdaq.com'
p1192
(lp1193
g9
asS'assetservicingtimes.com'
p1194
(lp1195
g12
asS'documents.gawker.com'
p1196
(lp1197
g9
asS'topics.nytimes.com'
p1198
(lp1199
g6
asS'nasdaq.com'
p1200
(lp1201
g9
asS'classifieds.nydailynews.com'
p1202
(lp1203
g9
asS'blog.ap.org'
p1204
(lp1205
g6
asS'heraldscotland.com'
p1206
(lp1207
g12
asS'www.sachet.rbi.org.in'
p1208
(lp1209
g23
asS'www.thestar.com'
p1210
(lp1211
g6
asS'views.washingtonpost.com'
p1212
(lp1213
g6
asS'disputations.gawker.com'
p1214
(lp1215
g9
asS'findit.edinburghnews.scotsman.com'
p1216
(lp1217
g12
asS'motto.time.com'
p1218
(lp1219
g9
asS'feeds.bleacherreport.com'
p1220
(lp1221
g6
asS'www.directorstalkinterviews.com'
p1222
(lp1223
g12
asS'manchesterblog.metro.co.uk'
p1224
(lp1225
g12
asS'data.huffingtonpost.com'
p1226
(lp1227
g6
asS'investorplace.com'
p1228
(lp1229
g9
asS'livemint.com'
p1230
(lp1231
g23
asS'cio.economictimes.indiatimes.com'
p1232
(lp1233
g23
asS'schools.chicagotribune.com'
p1234
(lp1235
g9
asS'projects.latimes.com'
p1236
(lp1237
g9
asS'recruiters.theguardian.com'
p1238
(lp1239
g6
asS'www.hiredonline.co.uk'
p1240
(lp1241
g155
asS'cn.wsj.com'
p1242
(lp1243
g6
ag32
asS'billswire.usatoday.com'
p1244
(lp1245
g9
asS'www.networksasia.net'
p1246
(lp1247
g155
asS'old.kashmirobserver.net'
p1248
(lp1249
g23
asS'www.wintergames.ap.org'
p1250
(lp1251
g6
asS'www.huffingtonpost.co.uk'
p1252
(lp1253
g12
asS'ig.ft.com'
p1254
(lp1255
g6
asS'www.earth-policy.org'
p1256
(lp1257
g6
asS'failover.hindustantimes.com'
p1258
(lp1259
g23
asS'nytlive.nytimes.com'
p1260
(lp1261
g6
asS'www.mic.com'
p1262
(lp1263
g6
asS'courses.theguardian.com'
p1264
(lp1265
g6
asS'graphicsweb.wsj.com'
p1266
(lp1267
g6
asS'www.hand-picked.telegraph.co.uk'
p1268
(lp1269
g12
asS'cnn.com'
p1270
(lp1271
g6
asS'www.financialexpress.com'
p1272
(lp1273
g23
asS'walesonline.co.uk'
p1274
(lp1275
g12
asS'prnmedia.prnewswire.com'
p1276
(lp1277
g6
asS'stats.washingtonpost.com'
p1278
(lp1279
g6
asS'nytimes.com'
p1280
(lp1281
g6
asS'dailyfinance.com'
p1282
(lp1283
g6
asS'puzzles.telegraph.co.uk'
p1284
(lp1285
g12
asS'info.msnbc.com'
p1286
(lp1287
g9
asS'independent.co.uk '
p1288
(lp1289
g12
asS'apps.washingtonpost.com'
p1290
(lp1291
g6
asS'interviews.gawker.com'
p1292
(lp1293
g9
asS'www.telegraphindia.com'
p1294
(lp1295
g23
asS'www.bloomberg.com'
p1296
(lp1297
g6
asS'navhindtimes.in'
p1298
(lp1299
g23
asS'live.washingtonpost.com'
p1300
(lp1301
g6
asS'wxrb.com'
p1302
(lp1303
g32
asS'admin.telegraphindia.com'
p1304
(lp1305
g23
asS'bostonglobe.com'
p1306
(lp1307
g9
asS'ptinews.com'
p1308
(lp1309
g23
asS'www.rbi.org.in'
p1310
(lp1311
g23
asS'nydailynews.com'
p1312
(lp1313
g9
asS'www.asianage.com'
p1314
(lp1315
g23
asS'opinion.latimes.com'
p1316
(lp1317
g9
asS's.telegraph.co.uk'
p1318
(lp1319
g12
asS'www.thedailybeast.com'
p1320
(lp1321
g6
asS'takingnote.blogs.nytimes.com'
p1322
(lp1323
g6
asS'blogs.barrons.com'
p1324
(lp1325
g6
asS'yzdsb.hebnews.cn'
p1326
(lp1327
g32
asS'www.liverpoolecho.co.uk'
p1328
(lp1329
g12
asS'www.bbc.com'
p1330
(lp1331
g6
asS'www.motherearthnews.com'
p1332
(lp1333
g6
asS'tools.prnewswire.com'
p1334
(lp1335
g6
asS'apnews.com'
p1336
(lp1337
g155
asS'niemann.blogs.nytimes.com'
p1338
(lp1339
g6
asS'findit.yorkshireeveningpost.co.uk'
p1340
(lp1341
g12
asS'collegefootball.ap.org'
p1342
(lp1343
g6
asS'xinjiangyaou.com'
p1344
(lp1345
g32
asS'live.nydailynews.com'
p1346
(lp1347
g9
asS'origin-nyi.thehill.com'
p1348
(lp1349
g9
asS'admeter.usatoday.com'
p1350
(lp1351
g9
asS'statetimes.in'
p1352
(lp1353
g23
asS'entertainment.time.com'
p1354
(lp1355
g9
asS'schools.latimes.com'
p1356
(lp1357
g9
asS'gawker.com'
p1358
(lp1359
g9
asS'store.chicagotribune.com'
p1360
(lp1361
g9
asS'saintswire.usatoday.com'
p1362
(lp1363
g9
asS'coltswire.usatoday.com'
p1364
(lp1365
g9
asS'books.reuters.com'
p1366
(lp1367
g6
asS'www.digitallook.com'
p1368
(lp1369
g6
asS'games.latimes.com'
p1370
(lp1371
g9
asS'ethics.npr.org'
p1372
(lp1373
g9
asS'build.aol.com'
p1374
(lp1375
g6
asS'my.screenname.aol.com'
p1376
(lp1377
g6
asS'cfo.economictimes.indiatimes.com'
p1378
(lp1379
g23
asS'thestar.com'
p1380
(lp1381
g6
asS'nasdaqtech.nasdaq.com'
p1382
(lp1383
g9
asS'theguardian.com'
p1384
(lp1385
g6
asS'whb.news365.com.cn'
p1386
(lp1387
g32
asS'www.cio.com'
p1388
(lp1389
g155
asS'www.theatlantic.com'
p1390
(lp1391
g6
asS'myaccount.nytimes.com'
p1392
(lp1393
g6
asS'hosted.ap.org'
p1394
(lp1395
g6
asS'globaltimes.cn'
p1396
(lp1397
g32
asS'tickets.independent.co.uk'
p1398
(lp1399
g12
asS'auto.economictimes.indiatimes.com'
p1400
(lp1401
g23
asS'www.pressandjournal.co.uk'
p1402
(lp1403
g12
asS'accounts.ft.com'
p1404
(lp1405
g6
asS'artsbeat.blogs.nytimes.com'
p1406
(lp1407
g6
asS'mail.npr.org'
p1408
(lp1409
g9
asS'health.nytimes.com'
p1410
(lp1411
g6
asS'oeeee.com'
p1412
(lp1413
g32
asS'motherearthnews.com'
p1414
(lp1415
g6
asS'investorshares.telegraph.co.uk'
p1416
(lp1417
g12
asS'coursefinder.telegraph.co.uk'
p1418
(lp1419
g12
asS'afterdeadline.blogs.nytimes.com'
p1420
(lp1421
g6
asS'bleacherreport.com'
p1422
(lp1423
g6
asS'search.washingtonpost.com'
p1424
(lp1425
g6
asS'www.forbes.com'
p1426
(lp1427
g6
asS'www.pro32.ap.org'
p1428
(lp1429
g6
asS'rssfeeds.usatoday.com'
p1430
(lp1431
g9
asS'blog.apps.npr.org'
p1432
(lp1433
g9
asS'www.indeed.com'
p1434
(lp1435
g155
asS'proactiveinvestors.com'
p1436
(lp1437
g6
asS'www.telegraph.co.uk'
p1438
(lp1439
g12
asS'myaccount2.latimes.com'
p1440
(lp1441
g9
asS'yorkshireblog.metro.co.uk'
p1442
(lp1443
g12
asS'info.briefing.com'
p1444
(lp1445
g6
asS'draftwire.usatoday.com'
p1446
(lp1447
g9
asS'local.nydailynews.com'
p1448
(lp1449
g9
asS'www.sakaaltimes.com'
p1450
(lp1451
g23
asS'insights.ap.org'
p1452
(lp1453
g6
asS'video-api.wsj.com'
p1454
(lp1455
g6
asS'photos.prnewswire.com'
p1456
(lp1457
g6
asS'www.fool.com'
p1458
(lp1459
g6
asS'timestraveler.blogs.nytimes.com'
p1460
(lp1461
g6
asS'100photos.time.com'
p1462
(lp1463
g9
asS'fanindex.usatoday.com'
p1464
(lp1465
g9
asS'autos.chicagotribune.com'
p1466
(lp1467
g9
asS'lakersblog.latimes.com'
p1468
(lp1469
g9
asS'theweek.co.uk'
p1470
(lp1471
g12
asS'thetimes.co.uk'
p1472
(lp1473
g12
asS'stats.nypost.com'
p1474
(lp1475
g9
asS'games.leicestermercury.co.uk'
p1476
(lp1477
g12
asS'www.freepressjournal.in'
p1478
(lp1479
g23
asS'transcripts.usatoday.com'
p1480
(lp1481
g9
asS'pgp.theguardian.com'
p1482
(lp1483
g6
asS'businessinsider.com'
p1484
(lp1485
g6
asS'guides.latimes.com'
p1486
(lp1487
g9
asS'service.bloomberg.com'
p1488
(lp1489
g6
asS'america.aljazeera.com'
p1490
(lp1491
g6
asS'kashmirtimes.in'
p1492
(lp1493
g23
asS'psychic.mirror.co.uk'
p1494
(lp1495
g12
asS'belfasttelegraph.co.uk'
p1496
(lp1497
g12
asS'discover.ap.org'
p1498
(lp1499
g6
asS'cardswire.usatoday.com'
p1500
(lp1501
g9
asS'www.dailyrecord.co.uk'
p1502
(lp1503
g12
asS'chinadigitaltimes.net'
p1504
(lp1505
g32
asS'www.inc.com'
p1506
(lp1507
g155
asS'retail.economictimes.indiatimes.com'
p1508
(lp1509
g23
asS'telecom.economictimes.indiatimes.com'
p1510
(lp1511
g23
asS'thedailybeast.com'
p1512
(lp1513
g6
asS'getpocket.com'
p1514
(lp1515
g155
asS'mailonsunday.co.uk'
p1516
(lp1517
g12
asS'dog.gawker.com'
p1518
(lp1519
g9
asS'sports.vice.com'
p1520
(lp1521
g6
asS'thehindu.com'
p1522
(lp1523
g23
asS'business.nbcnews.com'
p1524
(lp1525
g9
asS'morningstaronline.co.uk'
p1526
(lp1527
g12
asS'well.blogs.nytimes.com'
p1528
(lp1529
g6
asS'deccanchronicle.com'
p1530
(lp1531
g23
asS'www.onfaith.co'
p1532
(lp1533
g155
asS'www.nytimes.com'
p1534
(lp1535
g6
asS'thecaucus.blogs.nytimes.com'
p1536
(lp1537
g6
asS'kashmirobserver.net'
p1538
(lp1539
g23
asS'www.thehindu.com'
p1540
(lp1541
g23
asS'dailyexcelsior.com'
p1542
(lp1543
g23
asS'topics.blogs.nytimes.com'
p1544
(lp1545
g6
asS'themachines.gawker.com'
p1546
(lp1547
g9
asS'smartinvestor.business-standard.com'
p1548
(lp1549
g23
asS'uk.businessinsider.com'
p1550
(lp1551
g6
ag12
asS'orissapost.com'
p1552
(lp1553
g23
asS'blogs.forbes.com'
p1554
(lp1555
g6
asS'cbi.nic.in'
p1556
(lp1557
g23
asS'graphics.chicagotribune.com'
p1558
(lp1559
g9
asS'bearswire.usatoday.com'
p1560
(lp1561
g9
asS'telegraph.co.uk'
p1562
(lp1563
g12
asS'drugs.gawker.com'
p1564
(lp1565
g9
asS'energy.economictimes.indiatimes.com'
p1566
(lp1567
g23
asS'shop.irishnews.com'
p1568
(lp1569
g12
asS'www.ecowatch.com'
p1570
(lp1571
g6
asS'tv.gawker.com'
p1572
(lp1573
g9
asS'beta.usatoday.com'
p1574
(lp1575
g9
asS'mixedbagblog.metro.co.uk'
p1576
(lp1577
g12
asS'www.tribuneindia.com'
p1578
(lp1579
g23
asS'jobs.leicestermercury.co.uk'
p1580
(lp1581
g12
asS'scotsman.com'
p1582
(lp1583
g12
asS'boston.com'
p1584
(lp1585
g9
asS'techie.indianexpress.com'
p1586
(lp1587
g23
asS'press.foxnews.com'
p1588
(lp1589
g9
asS'jobs.nytimes.com'
p1590
(lp1591
g6
asS'games.chicagotribune.com'
p1592
(lp1593
g9
asS'mybenefits.aol.com'
p1594
(lp1595
g6
asS'thelab.bleacherreport.com'
p1596
(lp1597
g6
asS'enn.com'
p1598
(lp1599
g6
asS'bangaloreweekly.com'
p1600
(lp1601
g23
asS'shiftingcareers.blogs.nytimes.com'
p1602
(lp1603
g6
asS'india.blogs.nytimes.com'
p1604
(lp1605
g6
asS'aol.com'
p1606
(lp1607
g6
asS'jobs.washingtonpost.com'
p1608
(lp1609
g6
asS'independentjobs.independent.co.uk'
p1610
(lp1611
g12
asS'www.assetservicingtimes.com'
p1612
(lp1613
g12
asS'lexicon.ft.com'
p1614
(lp1615
g6
asS'leaderlive.co.uk'
p1616
(lp1617
g12
asS'examiner.com'
p1618
(lp1619
g12
asS'worldcup.blogs.nytimes.com'
p1620
(lp1621
g6
asS'dailynightly.msnbc.com'
p1622
(lp1623
g9
asS'irblog.prnewswire.com'
p1624
(lp1625
g6
asS'jobs.usatoday.com'
p1626
(lp1627
g9
asS'digitallook.com'
p1628
(lp1629
g6
asS'blog.bleacherreport.com'
p1630
(lp1631
g6
asS'filmtrailers.metro.co.uk'
p1632
(lp1633
g12
asS'edition.cnn.com'
p1634
(lp1635
g6
asS'elections.latimes.com'
p1636
(lp1637
g9
asS'af.reuters.com'
p1638
(lp1639
g6
asS'chc.tbe.taleo.net'
p1640
(lp1641
g155
asS'londonjobs.metro.co.uk'
p1642
(lp1643
g12
asS'directory.thesun.co.uk'
p1644
(lp1645
g12
asS'feeds.washingtonpost.com'
p1646
(lp1647
g6
asS'epaper.dnaindia.com'
p1648
(lp1649
g23
asS'www.afternoondc.in'
p1650
(lp1651
g23
asS'announcements.telegraph.co.uk'
p1652
(lp1653
g12
asS'midtermmadness.blogs.nytimes.com'
p1654
(lp1655
g6
asS'greenprophet.com'
p1656
(lp1657
g6
asS'businessweek.com'
p1658
(lp1659
g6
asS'meviewblog.metro.co.uk'
p1660
(lp1661
g12
asS'fantasyfootball.telegraph.co.uk'
p1662
(lp1663
g12
asS'theclimb.blogs.nytimes.com'
p1664
(lp1665
g6
asS'tmagazine.blogs.nytimes.com'
p1666
(lp1667
g6
asS'www.edinburghnews.scotsman.com'
p1668
(lp1669
g12
asS'in.mobile.reuters.com'
p1670
(lp1671
g6
asS'www.theguardian.com'
p1672
(lp1673
g6
asS'live.america.aljazeera.com'
p1674
(lp1675
g6
asS'bloomberg.com'
p1676
(lp1677
g6
asS'www.starofmysore.com'
p1678
(lp1679
g23
asS'fivethirtyeight.blogs.nytimes.com'
p1680
(lp1681
g6
asS'discover.aol.com'
p1682
(lp1683
g6
asS'elections.chicagotribune.com'
p1684
(lp1685
g9
asS'dealbook.nytimes.com'
p1686
(lp1687
g6
asS'bigcharts.marketwatch.com'
p1688
(lp1689
g6
asS'sport.belfasttelegraph.co.uk'
p1690
(lp1691
g12
asS'thump.vice.com'
p1692
(lp1693
g6
asS'thehindubusinessline.com'
p1694
(lp1695
g23
asS'elections.huffingtonpost.com'
p1696
(lp1697
g6
asS'viceland-assets-cdn.vice.com'
p1698
(lp1699
g6
asS'posteverything.washpost.com'
p1700
(lp1701
g155
asS'www.livemint.com'
p1702
(lp1703
g23
asS'dailyrecord.co.uk'
p1704
(lp1705
g12
asS'nagalandpost.com'
p1706
(lp1707
g23
asS'ssl.bbc.co.uk'
p1708
(lp1709
g6
asS'membership.theguardian.com'
p1710
(lp1711
g6
asS'events.vccircle.com'
p1712
(lp1713
g23
asS'blogs.economictimes.indiatimes.com'
p1714
(lp1715
g23
asS'marketgraphs1.economictimes.indiatimes.com'
p1716
(lp1717
g23
asS'forecourttrader.co.uk'
p1718
(lp1719
g12
asS'greaterkashmir.com'
p1720
(lp1721
g23
asS'mobile.reuters.com'
p1722
(lp1723
g6
asS'www.mirror.co.uk'
p1724
(lp1725
g12
asS'news.morningstar.com'
p1726
(lp1727
g9
asS'fantasyracing.telegraph.co.uk'
p1728
(lp1729
g12
asS'theweek.com'
p1730
(lp1731
g9
asS'www.greaterkashmir.com'
p1732
(lp1733
g23
asS'www.indy100.com'
p1734
(lp1735
g155
asS'planetark.com'
p1736
(lp1737
g6
asS'i.aol.com'
p1738
(lp1739
g6
asS'www.realclimate.org'
p1740
(lp1741
g6
asS'pub.cnbc.com'
p1742
(lp1743
g6
asS'offthedribble.blogs.nytimes.com'
p1744
(lp1745
g6
asS'fortressamerica.gawker.com'
p1746
(lp1747
g9
asS'livetradingnews.com'
p1748
(lp1749
g6
asS'insidertradings.org'
p1750
(lp1751
g6
asS'london2012.blogs.nytimes.com'
p1752
(lp1753
g6
asS'mwr.nytimes.com'
p1754
(lp1755
g6
asS'help.aol.com'
p1756
(lp1757
g6
asS'subscription-assets.time.com'
p1758
(lp1759
g9
asS'www.wsj.com'
p1760
(lp1761
g6
asS'investigations.nbcnews.com'
p1762
(lp1763
g9
asS'www.thehindubusinessline.com'
p1764
(lp1765
g23
asS'www.tottenhamjournal.co.uk'
p1766
(lp1767
g12
asS'uk.freecycle.org'
p1768
(lp1769
g12
asS'tribuneindia.com'
p1770
(lp1771
g23
asS'spreadsheets.latimes.com'
p1772
(lp1773
g9
asS'munchies.vice.com'
p1774
(lp1775
g6
asS'veteransspeak.groups.msnbc.com'
p1776
(lp1777
g9
asS'courses.independent.co.uk'
p1778
(lp1779
g12
asS'rankings.gawker.com'
p1780
(lp1781
g9
asS'm.realestatelistings.nytimes.com'
p1782
(lp1783
g6
asS'directory.dailypost.co.uk'
p1784
(lp1785
g12
asS'lep.co.uk'
p1786
(lp1787
g12
asS'aljazeera.com'
p1788
(lp1789
g6
asS'biznews.com'
p1790
(lp1791
g12
asS'interactive.aljazeera.com'
p1792
(lp1793
g6
asS'techcircle.vccircle.com'
p1794
(lp1795
g23
asS'pages.email.telegraph.co.uk'
p1796
(lp1797
g12
asS'shop.npr.org'
p1798
(lp1799
g9
asS'latitude.blogs.nytimes.com'
p1800
(lp1801
g6
asS'rbi.org.in'
p1802
(lp1803
g23
asS'sportsperspectives.com'
p1804
(lp1805
g155
asS'newsblogs.chicagotribune.com'
p1806
(lp1807
g9
asS'kickingscreaming.blogs.nytimes.com'
p1808
(lp1809
g6
asS'onfaith.washingtonpost.com'
p1810
(lp1811
g6
asS'marketgraphs2.economictimes.indiatimes.com'
p1812
(lp1813
g23
asS'military-gdit.icims.com'
p1814
(lp1815
g155
asS'editorial.digitalservices.npr.org'
p1816
(lp1817
g9
asS'mic.com'
p1818
(lp1819
g6
asS'www.briefing.com'
p1820
(lp1821
g6
asS'www.express.co.uk'
p1822
(lp1823
g12
asS'justice.gawker.com'
p1824
(lp1825
g9
asS'open.blogs.nytimes.com'
p1826
(lp1827
g6
asS'creators.vice.com'
p1828
(lp1829
g6
asS'huffingtonpost.com'
p1830
(lp1831
g6
asS'intransit.blogs.nytimes.com'
p1832
(lp1833
g6
asS'newoldage.blogs.nytimes.com'
p1834
(lp1835
g6
asS'm.briefing.com'
p1836
(lp1837
g6
asS'bestrestaurant.gawker.com'
p1838
(lp1839
g9
asS'discountcode.metro.co.uk'
p1840
(lp1841
g12
asS'indianapublicmedia.org'
p1842
(lp1843
g155
asS'morningafter.gawker.com'
p1844
(lp1845
g9
asS'media.apps.chicagotribune.com'
p1846
(lp1847
g9
asS'www.aljazeera.com'
p1848
(lp1849
g6
asS'reuters.com'
p1850
(lp1851
g6
asS'lens.blogs.nytimes.com'
p1852
(lp1853
g6
asS'ballots.latimes.com'
p1854
(lp1855
g9
asS'sebi.gov.in'
p1856
(lp1857
g23
asS'projects.aljazeera.com'
p1858
(lp1859
g6
asS'directory.leicestermercury.co.uk'
p1860
(lp1861
g12
asS'hkwb.net'
p1862
(lp1863
g32
asS'insider.foxnews.com'
p1864
(lp1865
g9
asS'shares.telegraph.co.uk'
p1866
(lp1867
g12
asS'toolbelt.cnbc.com'
p1868
(lp1869
g6
asS'www.heraldgoa.in'
p1870
(lp1871
g23
asS'knowmore.washingtonpost.com'
p1872
(lp1873
g6
asS'timecheapskate.wordpress.com'
p1874
(lp1875
g155
asS'world.time.com'
p1876
(lp1877
g9
asS'www.livetradingnews.com'
p1878
(lp1879
g6
asS'mobile.nytimes.com'
p1880
(lp1881
g6
asS'briefing.com'
p1882
(lp1883
g6
asS'racing.ap.org'
p1884
(lp1885
g6
asS'treehugger.com'
p1886
(lp1887
g6
asS'www.nydailynews.com'
p1888
(lp1889
g9
asS'www.lep.co.uk'
p1890
(lp1891
g12
asS'feeds.reuters.com'
p1892
(lp1893
g6
asS'placeanad.chicagotribune.com'
p1894
(lp1895
g9
asS'jetswire.usatoday.com'
p1896
(lp1897
g9
asS'www.msnbc.com'
p1898
(lp1899
g9
asS'cn.reuters.com'
p1900
(lp1901
g6
ag32
asS'usatoday.com'
p1902
(lp1903
g9
asS'www.navhindtimes.in'
p1904
(lp1905
g23
asS'pictures.reuters.com'
p1906
(lp1907
g6
asS'nerdlandchallenge.groups.msnbc.com'
p1908
(lp1909
g9
asS'gmw.cn'
p1910
(lp1911
g32
asS'aboutus.ft.com'
p1912
(lp1913
g6
asS'dating.telegraph.co.uk'
p1914
(lp1915
g12
asS'e.prnewswire.com'
p1916
(lp1917
g6
asS'www.streetinsider.com'
p1918
(lp1919
g9
asS'm.nasdaq.com'
p1920
(lp1921
g9
asS'xinmin.cn'
p1922
(lp1923
g32
asS'parenting.blogs.nytimes.com'
p1924
(lp1925
g6
asS'expressindia.indianexpress.com'
p1926
(lp1927
g23
asS'm.bbc.co.uk'
p1928
(lp1929
g6
asS'pressandjournal.co.uk'
p1930
(lp1931
g12
asS'latimes.com'
p1932
(lp1933
g9
asS'www.insider.co.uk'
p1934
(lp1935
g12
asS'economix.blogs.nytimes.com'
p1936
(lp1937
g6
asS'markets.cbsnews.com'
p1938
(lp1939
g9
asS'www.leicestermercury.co.uk'
p1940
(lp1941
g12
asS'www.economist.com'
p1942
(lp1943
g6
asS'www.proactiveinvestors.com'
p1944
(lp1945
g6
asS'files.heraldscotland.com'
p1946
(lp1947
g12
asS'picks.slate.com'
p1948
(lp1949
g9
asS'timesofindia.indiatimes.com'
p1950
(lp1951
g23
asS'asianage.com'
p1952
(lp1953
g23
asS'careers-gdit.icims.com'
p1954
(lp1955
g155
asS'www.orissapost.com'
p1956
(lp1957
g23
asS'blogs.hindustantimes.com'
p1958
(lp1959
g23
asS'app.walesonline.co.uk'
p1960
(lp1961
g12
asS'bengalswire.usatoday.com'
p1962
(lp1963
g9
asS'caps.fool.com'
p1964
(lp1965
g6
asS'advertising.gawker.com'
p1966
(lp1967
g9
asS'takes.gawker.com'
p1968
(lp1969
g9
asS'time100.time.com'
p1970
(lp1971
g9
asS'migraine.blogs.nytimes.com'
p1972
(lp1973
g6
asS'finalwhistle.metro.co.uk'
p1974
(lp1975
g12
asS'propertylistings.ft.com'
p1976
(lp1977
g6
asS'dbie.rbi.org.in'
p1978
(lp1979
g23
asS'choppersbrexitpodcast.telegraph.co.uk'
p1980
(lp1981
g12
asS'www.standard.co.uk'
p1982
(lp1983
g12
asS'nocera.blogs.nytimes.com'
p1984
(lp1985
g6
asS'yzwb.net'
p1986
(lp1987
g32
asS'teachers.theguardian.com'
p1988
(lp1989
g6
asS'douthat.blogs.nytimes.com'
p1990
(lp1991
g6
asS'yorkshirereporter.co.uk'
p1992
(lp1993
g12
asS'thestatesman.net'
p1994
(lp1995
g6
asS'salon.com'
p1996
(lp1997
g9
asS'search.cnbc.com'
p1998
(lp1999
g6
asS'www.pinterest.com'
p2000
(lp2001
g155
asS'archive.indianexpress.com'
p2002
(lp2003
g23
asS'moneylife.in'
p2004
(lp2005
g155
asS'mx.reuters.com'
p2006
(lp2007
g6
asS'contribute.theguardian.com'
p2008
(lp2009
g6
asS'm.leaderlive.co.uk'
p2010
(lp2011
g12
asS'directory.independent.co.uk'
p2012
(lp2013
g12
asS'goldderby.latimes.com'
p2014
(lp2015
g9
asS'graphics.latimes.com'
p2016
(lp2017
g9
asS'games.washingtonpost.com'
p2018
(lp2019
g6
asS'ecowatch.com'
p2020
(lp2021
g6
asS'www.barrons.com'
p2022
(lp2023
g6
asS'nation.foxnews.com'
p2024
(lp2025
g9
asS'assamchronicle.com'
p2026
(lp2027
g23
asS'feeds.boston.com'
p2028
(lp2029
g9
asS'raiderswire.usatoday.com'
p2030
(lp2031
g9
asS'www.ft.com'
p2032
(lp2033
g6
asS'infotron.fool.com'
p2034
(lp2035
g6
asS'video.ap.org'
p2036
(lp2037
g6
asS'blogs.ft.com'
p2038
(lp2039
g6
asS'atwar.blogs.nytimes.com'
p2040
(lp2041
g6
asS'plus.leicestermercury.co.uk'
p2042
(lp2043
g12
asS'marketgraphs5.economictimes.indiatimes.com'
p2044
(lp2045
g23
asS'articles.chicagotribune.com'
p2046
(lp2047
g9
asS'dailydanny.metro.co.uk'
p2048
(lp2049
g12
asS'brandequity.economictimes.indiatimes.com'
p2050
(lp2051
g23
asS'stream.aljazeera.com'
p2052
(lp2053
g6
asS'femvine.groups.msnbc.com'
p2054
(lp2055
g9
asS'thehill.com'
p2056
(lp2057
g9
asS'motoringblog.metro.co.uk'
p2058
(lp2059
g12
asS'maps.latimes.com'
p2060
(lp2061
g9
asS'bangaloremirror.indiatimes.com'
p2062
(lp2063
g23
asS'hitchensblog.mailonsunday.co.uk'
p2064
(lp2065
g12
asS'www.cricbuzz.com'
p2066
(lp2067
g155
asS'mumbaimirror.indiatimes.com'
p2068
(lp2069
g23
asS'bracket.blogs.nytimes.com'
p2070
(lp2071
g6
asS'sikkimexpress.com'
p2072
(lp2073
g23
asS'www.sentinelassam.com'
p2074
(lp2075
g23
asS'www.captiveinsurancetimes.com'
p2076
(lp2077
g12
asS'www.heraldscotland.com'
p2078
(lp2079
g12
asS'investor.sebi.gov.in'
p2080
(lp2081
g23
asS'westmidlandsblog.metro.co.uk'
p2082
(lp2083
g12
asS'bbc.co.uk'
p2084
(lp2085
g6
asS'westminstersc.com'
p2086
(lp2087
g9
asS'health.economictimes.indiatimes.com'
p2088
(lp2089
g23
asS'vox.com'
p2090
(lp2091
g6
asS'www.slate.com'
p2092
(lp2093
g9
asS'weeklyregister.com'
p2094
(lp2095
g6
asS'help.aol.co.uk'
p2096
(lp2097
g12
asS'foodanddrink.scotsman.com'
p2098
(lp2099
g12
asS'business.financialpost.com'
p2100
(lp2101
g6
asS'elections.ap.org'
p2102
(lp2103
g6
asS'www.gadgetsnow.com'
p2104
(lp2105
g155
asS'familynotices.chroniclelive.co.uk'
p2106
(lp2107
g12
asS'ck.jun360.com'
p2108
(lp2109
g32
asS'archive.fortune.com'
p2110
(lp2111
g6
asS'www.bbc.co.uk'
p2112
(lp2113
g6
asS'indulge.newindianexpress.com'
p2114
(lp2115
g23
asS'www.thetimes.co.uk'
p2116
(lp2117
g12
asS'myaccount2.chicagotribune.com'
p2118
(lp2119
g9
asS'express.co.uk'
p2120
(lp2121
g12
asS'foxnews.com'
p2122
(lp2123
g9
asS'mortgageblog.metro.co.uk'
p2124
(lp2125
g12
asS'sports.usatoday.com'
p2126
(lp2127
g9
asS'www.ap.org'
p2128
(lp2129
g6
asS'thescottishsun.co.uk'
p2130
(lp2131
g12
asS'www.dealstreetasia.com'
p2132
(lp2133
g23
asS'classifieds.latimes.com'
p2134
(lp2135
g9
asS'thechoice.blogs.nytimes.com'
p2136
(lp2137
g6
asS'cityroom.blogs.nytimes.com'
p2138
(lp2139
g6
asS'visualdata.indianexpress.com'
p2140
(lp2141
g23
asS'motherboard.vice.com'
p2142
(lp2143
g6
asS'hbr.org'
p2144
(lp2145
g6
asS'stateimpact.npr.org'
p2146
(lp2147
g9
asS'qlwb.com.cn'
p2148
(lp2149
g32
asS'register.ft.com'
p2150
(lp2151
g6
asS'markets.livemint.com'
p2152
(lp2153
g23
asS'www.vice.com'
p2154
(lp2155
g6
asS'captiveinsurancetimes.com'
p2156
(lp2157
g12
asS'beer.telegraph.co.uk'
p2158
(lp2159
g12
asS'm.mid-day.com'
p2160
(lp2161
g23
asS'staff.stream.aljazeera.com'
p2162
(lp2163
g6
asS'property.leicestermercury.co.uk'
p2164
(lp2165
g12
asS'afternoondc.in'
p2166
(lp2167
g23
asS'www.irishnews.com'
p2168
(lp2169
g12
asS'newsforums.bbc.co.uk'
p2170
(lp2171
g6
asS'ideas.time.com'
p2172
(lp2173
g9
asS'usnews.com'
p2174
(lp2175
g9
asS'shop.time.com'
p2176
(lp2177
g9
asS'investor.telegraph.co.uk'
p2178
(lp2179
g12
asS'jp.techcrunch.com'
p2180
(lp2181
g6
asS'yorkshireeveningpost.co.uk'
p2182
(lp2183
g12
asS'data.cnbc.com'
p2184
(lp2185
g6
asS'dodgeandburn.gawker.com'
p2186
(lp2187
g9
asS'washingtonpost.com'
p2188
(lp2189
g6
asS'ninerswire.usatoday.com'
p2190
(lp2191
g9
asS'briefingroom.thehill.com'
p2192
(lp2193
g9
asS'hindustantimes.com'
p2194
(lp2195
g23
asS'morungexpress.com'
p2196
(lp2197
g23
asS'articles.economictimes.indiatimes.com'
p2198
(lp2199
g23
asS'tierneylab.blogs.nytimes.com'
p2200
(lp2201
g6
asS'marketgraphs3.economictimes.indiatimes.com'
p2202
(lp2203
g23
asS'election.news.sky.com'
p2204
(lp2205
g12
asS'local.scotsman.com'
p2206
(lp2207
g12
asS'arunachalfront.info'
p2208
(lp2209
g23
asS'people.cn'
p2210
(lp2211
g32
asS'politburo.gawker.com'
p2212
(lp2213
g9
asS'travelshop.telegraph.co.uk'
p2214
(lp2215
g12
asS'expressandstar.com'
p2216
(lp2217
g12
asS'etspeedstg.economictimes.indiatimes.com'
p2218
(lp2219
g23
asS'ft.com'
p2220
(lp2221
g6
asS'e-edition.metro.co.uk'
p2222
(lp2223
g12
asS'paper.livemint.com'
p2224
(lp2225
g23
asS'techcrunch.com'
p2226
(lp2227
g6
asS'training.vccircle.com'
p2228
(lp2229
g23
asS'uniontimestoday.com'
p2230
(lp2231
g6
asS'www.statetimes.in'
p2232
(lp2233
g23
asS'careerssearch.bbc.co.uk'
p2234
(lp2235
g6
asS'royaldutchshellplc.com'
p2236
(lp2237
g155
asS'cdn.theatlantic.com'
p2238
(lp2239
g6
asS'feeds.wsjonline.com'
p2240
(lp2241
g6
asS'leicestermercury.co.uk'
p2242
(lp2243
g12
asS'dating.leicestermercury.co.uk'
p2244
(lp2245
g12
asS'news.cmlviz.com'
p2246
(lp2247
g9
asS'login.thetimes.co.uk'
p2248
(lp2249
g12
asS'www.dnaindia.com'
p2250
(lp2251
g23
asS'keepingscore.blogs.time.com'
p2252
(lp2253
g9
asS'photosales.belfasttelegraph.co.uk'
p2254
(lp2255
g12
asS'jaguarswire.usatoday.com'
p2256
(lp2257
g9
asS'toistudent.timesofindia.indiatimes.com'
p2258
(lp2259
g23
asS'internet.gawker.com'
p2260
(lp2261
g9
asS'www.hindustantimes.com'
p2262
(lp2263
g23
asS'epaper.starofmysore.com'
p2264
(lp2265
g23
asS'm.thehindubusinessline.com'
p2266
(lp2267
g23
asS'projects.washingtonpost.com'
p2268
(lp2269
g6
asS'scores.nbcsports.msnbc.com'
p2270
(lp2271
g9
asS'cbsnews.com'
p2272
(lp2273
g9
asS'beijing2008.blogs.nytimes.com'
p2274
(lp2275
g6
asS'environmentalhealthnews.org'
p2276
(lp2277
g6
asS'www.fastcompany.com'
p2278
(lp2279
g155
asS'www.infoworld.com'
p2280
(lp2281
g155
asS'techland.time.com'
p2282
(lp2283
g9
asS'grist.org'
p2284
(lp2285
g9
asS'www.businesswire.com'
p2286
(lp2287
g6
asS'live.cnbc.com'
p2288
(lp2289
g6
asS'online.wsj.com'
p2290
(lp2291
g6
ag9
asS'br.reuters.com'
p2292
(lp2293
g6
asS'thefalconswire.usatoday.com'
p2294
(lp2295
g9
asS'qna.economictimes.indiatimes.com'
p2296
(lp2297
g23
asS'blogs.timesofindia.indiatimes.com'
p2298
(lp2299
g23
asS'ir.nasdaq.com'
p2300
(lp2301
g9
asS'scientistatwork.blogs.nytimes.com'
p2302
(lp2303
g6
asS'usatoday30.usatoday.com'
p2304
(lp2305
g9
asS'accounts.google.com'
p2306
(lp2307
g155
asS'online.barrons.com'
p2308
(lp2309
g6
asS'agency.reuters.com'
p2310
(lp2311
g6
asS'www.foxnews.com'
p2312
(lp2313
g9
asS'blog.breakingnews.com'
p2314
(lp2315
g6
asS'mediakit.latimes.com'
p2316
(lp2317
g9
asS'phasezero.gawker.com'
p2318
(lp2319
g9
asS'business.nasdaq.com'
p2320
(lp2321
g9
asS'eventsblog.vccircle.com'
p2322
(lp2323
g23
asS'www.independent.co.uk'
p2324
(lp2325
g12
asS'bayarea.blogs.nytimes.com'
p2326
(lp2327
g6
asS'tech.economictimes.indiatimes.com'
p2328
(lp2329
g23
asS'prnewswire.com'
p2330
(lp2331
g6
asS'courses.telegraph.co.uk'
p2332
(lp2333
g12
asS'puzzles.standard.co.uk'
p2334
(lp2335
g12
asS'funds.ft.com'
p2336
(lp2337
g6
asS'www.dailypost.co.uk'
p2338
(lp2339
g12
asS'media.npr.org'
p2340
(lp2341
g9
asS'classifieds.navhindtimes.in'
p2342
(lp2343
g23
asS'parks.blogs.nytimes.com'
p2344
(lp2345
g6
asS'annualreports.com'
p2346
(lp2347
g9
asS'pro32.ap.org'
p2348
(lp2349
g6
asS'theverge.com'
p2350
(lp2351
g6
asS'dailypioneer.com'
p2352
(lp2353
g23
asS'breakingnews.com'
p2354
(lp2355
g6
asS'broadly.vice.com'
p2356
(lp2357
g6
asS'defamer.gawker.com'
p2358
(lp2359
g9
asS'www.thecerbatgem.com'
p2360
(lp2361
g6
asS'keller.blogs.nytimes.com'
p2362
(lp2363
g6
asS'www.washingtonpost.com'
p2364
(lp2365
g6
asS'mirror.co.uk'
p2366
(lp2367
g12
asS'chinaplus.cri.cn'
p2368
(lp2369
g32
asS'entertainment.blogs.foxnews.com'
p2370
(lp2371
g9
asS'register.theguardian.com'
p2372
(lp2373
g6
asS'www.deccanchronicle.com'
p2374
(lp2375
g23
asS'pollan.blogs.nytimes.com'
p2376
(lp2377
g6
asS'boss.blogs.nytimes.com'
p2378
(lp2379
g6
asS'apps.bostonglobe.com'
p2380
(lp2381
g9
asS'www.mydigitalfc.com'
p2382
(lp2383
g23
asS'nation.time.com'
p2384
(lp2385
g9
asS'profile.theguardian.com'
p2386
(lp2387
g6
asS'hrnews.co.uk'
p2388
(lp2389
g12
asS'theagenda.nytimes.com'
p2390
(lp2391
g6
asS'www.greenprophet.com'
p2392
(lp2393
g6
asS'editorsblog.mnn.com'
p2394
(lp2395
g6
asS'markets.ft.com'
p2396
(lp2397
g6
asS'indiainfoline.com'
p2398
(lp2399
g23
asS'www.belfasttelegraph.co.uk'
p2400
(lp2401
g12
asS'www.kashmirtimes.in'
p2402
(lp2403
g23
asS'deloitte.wsj.com'
p2404
(lp2405
g6
asS'mnn.com'
p2406
(lp2407
g6
asS'buy.wsj.com'
p2408
(lp2409
g6
asS'live.chicagotribune.com'
p2410
(lp2411
g9
asS'feeds.voices.washingtonpost.com'
p2412
(lp2413
g6
asS'standardandpoors.com'
p2414
(lp2415
g6
asS'realestate.boston.com'
p2416
(lp2417
g9
asS'straightsets.blogs.nytimes.com'
p2418
(lp2419
g6
asS'primaries2012.elections.chicagotribune.com'
p2420
(lp2421
g9
as.